target datalayout = "e-m:e-p270:32:32-p271:32:32-p272:64:64-i64:64-i128:128-f80:128-n8:16:32:64-S128"
target triple = "x86_64-pc-linux-gnu"

@hf_rdm_pd_sensor_nr = internal global i32 0, align 4
@hf_rdm_pd_sensor_value_pres = internal global i32 0, align 4
@hf_rdm_pd_sensor_value_low = internal global i32 0, align 4
@hf_rdm_pd_sensor_value_high = internal global i32 0, align 4
@hf_rdm_pd_sensor_value_rec = internal global i32 0, align 4

; Function Attrs: null_pointer_is_valid sspstrong uwtable
define internal void @rdm_proto_tree_add_numeric_item(ptr noundef %0, i32 noundef %1, ptr noundef %2, ptr noundef %3, i8 noundef zeroext %4) #1 {
  %6 = alloca ptr, align 8
  %7 = alloca i32, align 4
  %8 = alloca ptr, align 8
  %9 = alloca ptr, align 8
  %10 = alloca i8, align 1
  %11 = alloca i32, align 4
  store ptr %0, ptr %6, align 8
  store i32 %1, ptr %7, align 4
  store ptr %2, ptr %8, align 8
  store ptr %3, ptr %9, align 8
  store i8 %4, ptr %10, align 1
  call void @llvm.lifetime.start.p0(i64 4, ptr %11) #4
  %12 = load ptr, ptr %9, align 8
  %13 = load i32, ptr %12, align 4
  store i32 %13, ptr %11, align 4
  %14 = load ptr, ptr %6, align 8
  %15 = load i32, ptr %7, align 4
  %16 = load ptr, ptr %8, align 8
  %17 = load i32, ptr %11, align 4
  %18 = load i8, ptr %10, align 1
  %19 = zext i8 %18 to i32
  %20 = call ptr @proto_tree_add_item(ptr noundef %14, i32 noundef %15, ptr noundef %16, i32 noundef %17, i32 noundef %19, i32 noundef 0)
  %21 = load i8, ptr %10, align 1
  %22 = zext i8 %21 to i32
  %23 = load ptr, ptr %9, align 8
  %24 = load i32, ptr %23, align 4
  %25 = add i32 %24, %22
  store i32 %25, ptr %23, align 4
  call void @llvm.lifetime.end.p0(i64 4, ptr %11) #4
  ret void
}

; Function Attrs: null_pointer_is_valid sspstrong uwtable
define internal i32 @dissect_rdm_pd_sensor_value(ptr noundef %0, i32 noundef %1, ptr noundef %2, i8 noundef zeroext %3, i8 noundef zeroext %4) #1 {
  %6 = alloca ptr, align 8
  %7 = alloca i32, align 4
  %8 = alloca ptr, align 8
  %9 = alloca i8, align 1
  %10 = alloca i8, align 1
  %11 = alloca i8, align 1
  store ptr %0, ptr %6, align 8
  store i32 %1, ptr %7, align 4
  store ptr %2, ptr %8, align 8
  store i8 %3, ptr %9, align 1
  store i8 %4, ptr %10, align 1
  call void @llvm.lifetime.start.p0(i64 1, ptr %11) #4
  %12 = load i8, ptr %10, align 1
  store i8 %12, ptr %11, align 1
  %13 = load i8, ptr %9, align 1
  %14 = zext i8 %13 to i32
  switch i32 %14, label %53 [
    i32 32, label %15
    i32 48, label %15
    i32 33, label %19
    i32 49, label %19
  ]

15:                                               ; preds = %5, %5
  %16 = load ptr, ptr %8, align 8
  %17 = load i32, ptr @hf_rdm_pd_sensor_nr, align 4
  %18 = load ptr, ptr %6, align 8
  call void @rdm_proto_tree_add_numeric_item(ptr noundef %16, i32 noundef %17, ptr noundef %18, ptr noundef %7, i8 noundef zeroext 1)
  br label %53

19:                                               ; preds = %5, %5
  %20 = load ptr, ptr %8, align 8
  %21 = load i32, ptr @hf_rdm_pd_sensor_nr, align 4
  %22 = load ptr, ptr %6, align 8
  call void @rdm_proto_tree_add_numeric_item(ptr noundef %20, i32 noundef %21, ptr noundef %22, ptr noundef %7, i8 noundef zeroext 1)
  %23 = load ptr, ptr %8, align 8
  %24 = load i32, ptr @hf_rdm_pd_sensor_value_pres, align 4
  %25 = load ptr, ptr %6, align 8
  call void @rdm_proto_tree_add_numeric_item(ptr noundef %23, i32 noundef %24, ptr noundef %25, ptr noundef %7, i8 noundef zeroext 2)
  %26 = load i8, ptr %11, align 1
  %27 = zext i8 %26 to i32
  %28 = icmp eq i32 %27, 7
  br i1 %28, label %33, label %29

29:                                               ; preds = %19
  %30 = load i8, ptr %11, align 1
  %31 = zext i8 %30 to i32
  %32 = icmp eq i32 %31, 9
  br i1 %32, label %33, label %40

33:                                               ; preds = %29, %19
  %34 = load ptr, ptr %8, align 8
  %35 = load i32, ptr @hf_rdm_pd_sensor_value_low, align 4
  %36 = load ptr, ptr %6, align 8
  call void @rdm_proto_tree_add_numeric_item(ptr noundef %34, i32 noundef %35, ptr noundef %36, ptr noundef %7, i8 noundef zeroext 2)
  %37 = load ptr, ptr %8, align 8
  %38 = load i32, ptr @hf_rdm_pd_sensor_value_high, align 4
  %39 = load ptr, ptr %6, align 8
  call void @rdm_proto_tree_add_numeric_item(ptr noundef %37, i32 noundef %38, ptr noundef %39, ptr noundef %7, i8 noundef zeroext 2)
  br label %40

40:                                               ; preds = %33, %29
  %41 = load i8, ptr %11, align 1
  %42 = zext i8 %41 to i32
  %43 = icmp eq i32 %42, 5
  br i1 %43, label %48, label %44

44:                                               ; preds = %40
  %45 = load i8, ptr %11, align 1
  %46 = zext i8 %45 to i32
  %47 = icmp eq i32 %46, 9
  br i1 %47, label %48, label %52

48:                                               ; preds = %44, %40
  %49 = load ptr, ptr %8, align 8
  %50 = load i32, ptr @hf_rdm_pd_sensor_value_rec, align 4
  %51 = load ptr, ptr %6, align 8
  call void @rdm_proto_tree_add_numeric_item(ptr noundef %49, i32 noundef %50, ptr noundef %51, ptr noundef %7, i8 noundef zeroext 2)
  br label %52

52:                                               ; preds = %48, %44
  br label %53

53:                                               ; preds = %5, %52, %15
  %54 = load i32, ptr %7, align 4
  call void @llvm.lifetime.end.p0(i64 1, ptr %11) #4
  ret i32 %54
}