; Function Attrs: null_pointer_is_valid sspstrong uwtable
define internal fastcc range(i32 23, 33) i32 @dissect_rdm_pd_sensor_value(ptr noundef %0, ptr noundef %1, i8 noundef zeroext %2, i8 noundef zeroext %3) unnamed_addr #1 {
  switch i8 %2, label %22 [
    i8 32, label %5
    i8 48, label %5
    i8 33, label %8
    i8 49, label %8
  ]

5:                                                ; preds = %4, %4
  %6 = load i32, ptr @hf_rdm_pd_sensor_nr, align 4
  %7 = tail call ptr @proto_tree_add_item(ptr noundef %1, i32 noundef %6, ptr noundef %0, i32 noundef 23, i32 noundef 1, i32 noundef 0)
  br label %22

8:                                                ; preds = %4, %4
  %9 = load i32, ptr @hf_rdm_pd_sensor_nr, align 4
  %10 = tail call ptr @proto_tree_add_item(ptr noundef %1, i32 noundef %9, ptr noundef %0, i32 noundef 23, i32 noundef 1, i32 noundef 0)
  %11 = load i32, ptr @hf_rdm_pd_sensor_value_pres, align 4
  %12 = tail call ptr @proto_tree_add_item(ptr noundef %1, i32 noundef %11, ptr noundef %0, i32 noundef 24, i32 noundef 2, i32 noundef 0)
  switch i8 %3, label %22 [
    i8 9, label %13
    i8 7, label %13
    i8 5, label %18
  ]

13:                                               ; preds = %8, %8
  %14 = load i32, ptr @hf_rdm_pd_sensor_value_low, align 4
  %15 = tail call ptr @proto_tree_add_item(ptr noundef %1, i32 noundef %14, ptr noundef %0, i32 noundef 26, i32 noundef 2, i32 noundef 0)
  %16 = load i32, ptr @hf_rdm_pd_sensor_value_high, align 4
  %17 = tail call ptr @proto_tree_add_item(ptr noundef %1, i32 noundef %16, ptr noundef %0, i32 noundef 28, i32 noundef 2, i32 noundef 0)
  %cond = icmp eq i8 %3, 9
  br i1 %cond, label %18, label %22

18:                                               ; preds = %13, %8
  %.1 = phi i32 [ 26, %8 ], [ 30, %13 ]
  %19 = load i32, ptr @hf_rdm_pd_sensor_value_rec, align 4
  %20 = tail call ptr @proto_tree_add_item(ptr noundef %1, i32 noundef %19, ptr noundef %0, i32 noundef %.1, i32 noundef 2, i32 noundef 0)
  %21 = add nuw nsw i32 %.1, 2
  br label %22

22:                                               ; preds = %13, %8, %18, %5, %4
  %.0 = phi i32 [ 23, %4 ], [ 26, %8 ], [ %21, %18 ], [ 30, %13 ], [ 24, %5 ]
  ret i32 %.0
}